target datalayout = "e-m:e-p270:32:32-p271:32:32-p272:64:64-i64:64-i128:128-f80:128-n8:16:32:64-S128"
target triple = "x86_64-pc-linux-gnu"

%struct.ossl_passphrase_data_st = type { i32, %union.anon, i8, ptr, i64 }
%union.anon = type { %struct.anon }
%struct.anon = type { ptr, i64 }
%struct.ossl_store_ctx_st = type { ptr, ptr, ptr, ptr, ptr, i32, ptr, i32, i32, ptr, %struct.ossl_passphrase_data_st }
%struct.ossl_store_loader_st = type { ptr, ptr, ptr, ptr, ptr, ptr, ptr, ptr, ptr, ptr, ptr, ptr, ptr, i32, ptr, ptr, %struct.CRYPTO_REF_COUNT, ptr, ptr, ptr, ptr, ptr, ptr, ptr, ptr, ptr, ptr }
%struct.CRYPTO_REF_COUNT = type { i32 }
%struct.ossl_store_search_st = type { i32, ptr, ptr, ptr, ptr, i64 }

@.str.5 = private unnamed_addr constant [8 x i8] c"subject\00", align 1
@.str.6 = private unnamed_addr constant [5 x i8] c"name\00", align 1
@.str.7 = private unnamed_addr constant [7 x i8] c"serial\00", align 1
@.str.9 = private unnamed_addr constant [12 x i8] c"fingerprint\00", align 1
@.str.10 = private unnamed_addr constant [6 x i8] c"alias\00", align 1

; Function Attrs: nounwind uwtable
define i32 @OSSL_STORE_supports_search(ptr noundef %0, i32 noundef %1) #0 {
  %3 = alloca i32, align 4
  %4 = alloca ptr, align 8
  %5 = alloca i32, align 4
  %6 = alloca i32, align 4
  %7 = alloca ptr, align 8
  %8 = alloca ptr, align 8
  %9 = alloca ptr, align 8
  %10 = alloca ptr, align 8
  %11 = alloca ptr, align 8
  %12 = alloca ptr, align 8
  %13 = alloca ptr, align 8
  %14 = alloca i32, align 4
  %15 = alloca %struct.ossl_store_search_st, align 8
  store ptr %0, ptr %4, align 8, !tbaa !19
  store i32 %1, ptr %5, align 4, !tbaa !21
  call void @llvm.lifetime.start.p0(i64 4, ptr %6) #8
  store i32 0, ptr %6, align 4, !tbaa !21
  %16 = load ptr, ptr %4, align 8, !tbaa !19
  %17 = getelementptr inbounds nuw %struct.ossl_store_ctx_st, ptr %16, i32 0, i32 1
  %18 = load ptr, ptr %17, align 8, !tbaa !42
  %19 = icmp ne ptr %18, null
  br i1 %19, label %20, label %77

20:                                               ; preds = %2
  call void @llvm.lifetime.start.p0(i64 8, ptr %7) #8
  %21 = load ptr, ptr %4, align 8, !tbaa !19
  %22 = getelementptr inbounds nuw %struct.ossl_store_ctx_st, ptr %21, i32 0, i32 1
  %23 = load ptr, ptr %22, align 8, !tbaa !42
  %24 = call ptr @OSSL_STORE_LOADER_get0_provider(ptr noundef %23)
  %25 = call ptr @ossl_provider_ctx(ptr noundef %24)
  store ptr %25, ptr %7, align 8, !tbaa !12
  call void @llvm.lifetime.start.p0(i64 8, ptr %8) #8
  call void @llvm.lifetime.start.p0(i64 8, ptr %9) #8
  store ptr null, ptr %9, align 8, !tbaa !13
  call void @llvm.lifetime.start.p0(i64 8, ptr %10) #8
  store ptr null, ptr %10, align 8, !tbaa !13
  call void @llvm.lifetime.start.p0(i64 8, ptr %11) #8
  store ptr null, ptr %11, align 8, !tbaa !13
  call void @llvm.lifetime.start.p0(i64 8, ptr %12) #8
  store ptr null, ptr %12, align 8, !tbaa !13
  call void @llvm.lifetime.start.p0(i64 8, ptr %13) #8
  store ptr null, ptr %13, align 8, !tbaa !13
  %26 = load ptr, ptr %4, align 8, !tbaa !19
  %27 = getelementptr inbounds nuw %struct.ossl_store_ctx_st, ptr %26, i32 0, i32 1
  %28 = load ptr, ptr %27, align 8, !tbaa !42
  %29 = getelementptr inbounds nuw %struct.ossl_store_loader_st, ptr %28, i32 0, i32 19
  %30 = load ptr, ptr %29, align 8, !tbaa !98
  %31 = icmp eq ptr %30, null
  br i1 %31, label %32, label %33

32:                                               ; preds = %20
  store i32 0, ptr %3, align 4
  store i32 1, ptr %14, align 4
  br label %74

33:                                               ; preds = %20
  %34 = load ptr, ptr %4, align 8, !tbaa !19
  %35 = getelementptr inbounds nuw %struct.ossl_store_ctx_st, ptr %34, i32 0, i32 1
  %36 = load ptr, ptr %35, align 8, !tbaa !42
  %37 = getelementptr inbounds nuw %struct.ossl_store_loader_st, ptr %36, i32 0, i32 19
  %38 = load ptr, ptr %37, align 8, !tbaa !98
  %39 = load ptr, ptr %7, align 8, !tbaa !12
  %40 = call ptr %38(ptr noundef %39)
  store ptr %40, ptr %8, align 8, !tbaa !13
  %41 = load ptr, ptr %8, align 8, !tbaa !13
  %42 = call ptr @OSSL_PARAM_locate_const(ptr noundef %41, ptr noundef @.str.5)
  store ptr %42, ptr %9, align 8, !tbaa !13
  %43 = load ptr, ptr %8, align 8, !tbaa !13
  %44 = call ptr @OSSL_PARAM_locate_const(ptr noundef %43, ptr noundef @.str.6)
  store ptr %44, ptr %10, align 8, !tbaa !13
  %45 = load ptr, ptr %8, align 8, !tbaa !13
  %46 = call ptr @OSSL_PARAM_locate_const(ptr noundef %45, ptr noundef @.str.7)
  store ptr %46, ptr %11, align 8, !tbaa !13
  %47 = load ptr, ptr %8, align 8, !tbaa !13
  %48 = call ptr @OSSL_PARAM_locate_const(ptr noundef %47, ptr noundef @.str.9)
  store ptr %48, ptr %12, align 8, !tbaa !13
  %49 = load ptr, ptr %8, align 8, !tbaa !13
  %50 = call ptr @OSSL_PARAM_locate_const(ptr noundef %49, ptr noundef @.str.10)
  store ptr %50, ptr %13, align 8, !tbaa !13
  %51 = load i32, ptr %5, align 4, !tbaa !21
  switch i32 %51, label %73 [
    i32 1, label %52
    i32 2, label %56
    i32 3, label %65
    i32 4, label %69
  ]

52:                                               ; preds = %33
  %53 = load ptr, ptr %9, align 8, !tbaa !13
  %54 = icmp ne ptr %53, null
  %55 = zext i1 %54 to i32
  store i32 %55, ptr %6, align 4, !tbaa !21
  br label %73

56:                                               ; preds = %33
  %57 = load ptr, ptr %10, align 8, !tbaa !13
  %58 = icmp ne ptr %57, null
  br i1 %58, label %59, label %62

59:                                               ; preds = %56
  %60 = load ptr, ptr %11, align 8, !tbaa !13
  %61 = icmp ne ptr %60, null
  br label %62

62:                                               ; preds = %59, %56
  %63 = phi i1 [ false, %56 ], [ %61, %59 ]
  %64 = zext i1 %63 to i32
  store i32 %64, ptr %6, align 4, !tbaa !21
  br label %73

65:                                               ; preds = %33
  %66 = load ptr, ptr %12, align 8, !tbaa !13
  %67 = icmp ne ptr %66, null
  %68 = zext i1 %67 to i32
  store i32 %68, ptr %6, align 4, !tbaa !21
  br label %73

69:                                               ; preds = %33
  %70 = load ptr, ptr %13, align 8, !tbaa !13
  %71 = icmp ne ptr %70, null
  %72 = zext i1 %71 to i32
  store i32 %72, ptr %6, align 4, !tbaa !21
  br label %73

73:                                               ; preds = %33, %69, %65, %62, %52
  store i32 0, ptr %14, align 4
  br label %74

74:                                               ; preds = %73, %32
  call void @llvm.lifetime.end.p0(i64 8, ptr %13) #8
  call void @llvm.lifetime.end.p0(i64 8, ptr %12) #8
  call void @llvm.lifetime.end.p0(i64 8, ptr %11) #8
  call void @llvm.lifetime.end.p0(i64 8, ptr %10) #8
  call void @llvm.lifetime.end.p0(i64 8, ptr %9) #8
  call void @llvm.lifetime.end.p0(i64 8, ptr %8) #8
  call void @llvm.lifetime.end.p0(i64 8, ptr %7) #8
  %75 = load i32, ptr %14, align 4
  switch i32 %75, label %104 [
    i32 0, label %76
  ]

76:                                               ; preds = %74
  br label %77

77:                                               ; preds = %76, %2
  %78 = load ptr, ptr %4, align 8, !tbaa !19
  %79 = getelementptr inbounds nuw %struct.ossl_store_ctx_st, ptr %78, i32 0, i32 1
  %80 = load ptr, ptr %79, align 8, !tbaa !42
  %81 = icmp eq ptr %80, null
  br i1 %81, label %82, label %102

82:                                               ; preds = %77
  call void @llvm.lifetime.start.p0(i64 48, ptr %15) #8
  %83 = load ptr, ptr %4, align 8, !tbaa !19
  %84 = getelementptr inbounds nuw %struct.ossl_store_ctx_st, ptr %83, i32 0, i32 0
  %85 = load ptr, ptr %84, align 8, !tbaa !43
  %86 = getelementptr inbounds nuw %struct.ossl_store_loader_st, ptr %85, i32 0, i32 6
  %87 = load ptr, ptr %86, align 8, !tbaa !76
  %88 = icmp eq ptr %87, null
  br i1 %88, label %89, label %90

89:                                               ; preds = %82
  store i32 0, ptr %3, align 4
  store i32 1, ptr %14, align 4
  br label %99

90:                                               ; preds = %82
  %91 = load i32, ptr %5, align 4, !tbaa !21
  %92 = getelementptr inbounds nuw %struct.ossl_store_search_st, ptr %15, i32 0, i32 0
  store i32 %91, ptr %92, align 8, !tbaa !66
  %93 = load ptr, ptr %4, align 8, !tbaa !19
  %94 = getelementptr inbounds nuw %struct.ossl_store_ctx_st, ptr %93, i32 0, i32 0
  %95 = load ptr, ptr %94, align 8, !tbaa !43
  %96 = getelementptr inbounds nuw %struct.ossl_store_loader_st, ptr %95, i32 0, i32 6
  %97 = load ptr, ptr %96, align 8, !tbaa !76
  %98 = call i32 %97(ptr noundef null, ptr noundef %15)
  store i32 %98, ptr %6, align 4, !tbaa !21
  store i32 0, ptr %14, align 4
  br label %99

99:                                               ; preds = %90, %89
  call void @llvm.lifetime.end.p0(i64 48, ptr %15) #8
  %100 = load i32, ptr %14, align 4
  switch i32 %100, label %104 [
    i32 0, label %101
  ]

101:                                              ; preds = %99
  br label %102

102:                                              ; preds = %101, %77
  %103 = load i32, ptr %6, align 4, !tbaa !21
  store i32 %103, ptr %3, align 4
  store i32 1, ptr %14, align 4
  br label %104

104:                                              ; preds = %102, %99, %74
  call void @llvm.lifetime.end.p0(i64 4, ptr %6) #8
  %105 = load i32, ptr %3, align 4
  ret i32 %105
}