; Function Attrs: nounwind uwtable
define i32 @OSSL_STORE_supports_search(ptr noundef readonly captures(none) %0, i32 noundef %1) local_unnamed_addr #0 {
  %3 = alloca %struct.ossl_store_search_st, align 8
  %4 = getelementptr inbounds nuw i8, ptr %0, i64 8
  %5 = load ptr, ptr %4, align 8, !tbaa !33
  %.not = icmp eq ptr %5, null
  br i1 %.not, label %.thread35, label %6

6:                                                ; preds = %2
  %7 = tail call ptr @OSSL_STORE_LOADER_get0_provider(ptr noundef nonnull %5) #9
  %8 = tail call ptr @ossl_provider_ctx(ptr noundef %7) #9
  %9 = load ptr, ptr %4, align 8, !tbaa !33
  %10 = getelementptr inbounds nuw i8, ptr %9, i64 152
  %11 = load ptr, ptr %10, align 8, !tbaa !72
  %.not32 = icmp eq ptr %11, null
  br i1 %.not32, label %.thread, label %12

12:                                               ; preds = %6
  %13 = tail call ptr %11(ptr noundef %8) #9
  %14 = tail call ptr @OSSL_PARAM_locate_const(ptr noundef %13, ptr noundef nonnull @.str.5) #9
  %15 = tail call ptr @OSSL_PARAM_locate_const(ptr noundef %13, ptr noundef nonnull @.str.6) #9
  %16 = tail call ptr @OSSL_PARAM_locate_const(ptr noundef %13, ptr noundef nonnull @.str.7) #9
  %17 = tail call ptr @OSSL_PARAM_locate_const(ptr noundef %13, ptr noundef nonnull @.str.9) #9
  %18 = tail call ptr @OSSL_PARAM_locate_const(ptr noundef %13, ptr noundef nonnull @.str.10) #9
  switch i32 %1, label %29 [
    i32 1, label %19
    i32 2, label %21
    i32 3, label %25
    i32 4, label %27
  ]

19:                                               ; preds = %12
  %20 = icmp ne ptr %14, null
  br label %29

21:                                               ; preds = %12
  %22 = icmp ne ptr %15, null
  %23 = icmp ne ptr %16, null
  %24 = select i1 %22, i1 %23, i1 false
  br label %29

25:                                               ; preds = %12
  %26 = icmp ne ptr %17, null
  br label %29

27:                                               ; preds = %12
  %28 = icmp ne ptr %18, null
  br label %29

29:                                               ; preds = %27, %25, %21, %19, %12
  %.228.shrunk = phi i1 [ false, %12 ], [ %28, %27 ], [ %26, %25 ], [ %24, %21 ], [ %20, %19 ]
  %.228 = zext i1 %.228.shrunk to i32
  %.pr = load ptr, ptr %4, align 8, !tbaa !33
  %30 = icmp eq ptr %.pr, null
  br i1 %30, label %.thread35, label %.thread

.thread35:                                        ; preds = %2, %29
  call void @llvm.lifetime.start.p0(i64 48, ptr nonnull %3) #9
  %31 = load ptr, ptr %0, align 8, !tbaa !34
  %32 = getelementptr inbounds nuw i8, ptr %31, i64 48
  %33 = load ptr, ptr %32, align 8, !tbaa !57
  %.not33 = icmp eq ptr %33, null
  br i1 %.not33, label %36, label %34

34:                                               ; preds = %.thread35
  store i32 %1, ptr %3, align 8, !tbaa !47
  %35 = call i32 %33(ptr noundef null, ptr noundef nonnull %3) #9
  br label %36

36:                                               ; preds = %.thread35, %34
  %spec.select = phi i32 [ %35, %34 ], [ 0, %.thread35 ]
  call void @llvm.lifetime.end.p0(i64 48, ptr nonnull %3) #9
  br label %.thread

.thread:                                          ; preds = %6, %36, %29
  %.2 = phi i32 [ %.228, %29 ], [ %spec.select, %36 ], [ 0, %6 ]
  ret i32 %.2
}